target datalayout = "e-m:e-p270:32:32-p271:32:32-p272:64:64-i64:64-i128:128-f80:128-n8:16:32:64-S128"
target triple = "x86_64-pc-linux-gnu"

%"class.grpc_core::UniqueTypeName::Factory" = type { ptr }
%"class.std::basic_string_view" = type { i64, ptr }
%"class.std::__cxx11::basic_string" = type { %"struct.std::__cxx11::basic_string<char>::_Alloc_hider", i64, %union.anon }
%"struct.std::__cxx11::basic_string<char>::_Alloc_hider" = type { ptr }
%union.anon = type { i64, [8 x i8] }
%"class.grpc_core::UniqueTypeName" = type { %"class.std::basic_string_view" }

@_ZZN39grpc_google_default_channel_credentials4TypeEvE8kFactory = internal global %"class.grpc_core::UniqueTypeName::Factory" zeroinitializer, align 8
@_ZGVZN39grpc_google_default_channel_credentials4TypeEvE8kFactory = internal global i64 0, align 8
@.str.6 = private unnamed_addr constant [14 x i8] c"GoogleDefault\00", align 1

; Function Attrs: mustprogress nounwind uwtable
define available_externally noundef ptr @_ZNKSt7__cxx1112basic_stringIcSt11char_traitsIcESaIcEE7_M_dataEv(ptr noundef nonnull align 8 dereferenceable(32) %0) #6 align 2 {
  %2 = alloca ptr, align 8
  store ptr %0, ptr %2, align 8, !tbaa !59
  %3 = load ptr, ptr %2, align 8
  %4 = getelementptr inbounds nuw %"class.std::__cxx11::basic_string", ptr %3, i32 0, i32 0
  %5 = getelementptr inbounds nuw %"struct.std::__cxx11::basic_string<char>::_Alloc_hider", ptr %4, i32 0, i32 0
  %6 = load ptr, ptr %5, align 8, !tbaa !185
  ret ptr %6
}

; Function Attrs: mustprogress nounwind uwtable
define linkonce_odr void @_ZNSt17basic_string_viewIcSt11char_traitsIcEEC2EPKcm(ptr noundef nonnull align 8 dereferenceable(16) %0, ptr noundef %1, i64 noundef %2) unnamed_addr #6 comdat align 2 {
  %4 = alloca ptr, align 8
  %5 = alloca ptr, align 8
  %6 = alloca i64, align 8
  store ptr %0, ptr %4, align 8, !tbaa !20
  store ptr %1, ptr %5, align 8, !tbaa !10
  store i64 %2, ptr %6, align 8, !tbaa !31
  %7 = load ptr, ptr %4, align 8
  %8 = getelementptr inbounds nuw %"class.std::basic_string_view", ptr %7, i32 0, i32 0
  %9 = load i64, ptr %6, align 8, !tbaa !31
  store i64 %9, ptr %8, align 8, !tbaa !22
  %10 = getelementptr inbounds nuw %"class.std::basic_string_view", ptr %7, i32 0, i32 1
  %11 = load ptr, ptr %5, align 8, !tbaa !10
  store ptr %11, ptr %10, align 8, !tbaa !25
  ret void
}

; Function Attrs: mustprogress nounwind uwtable
define available_externally noundef i64 @_ZNKSt7__cxx1112basic_stringIcSt11char_traitsIcESaIcEE4sizeEv(ptr noundef nonnull align 8 dereferenceable(32) %0) #6 align 2 {
  %2 = alloca ptr, align 8
  store ptr %0, ptr %2, align 8, !tbaa !59
  %3 = load ptr, ptr %2, align 8
  %4 = getelementptr inbounds nuw %"class.std::__cxx11::basic_string", ptr %3, i32 0, i32 1
  %5 = load i64, ptr %4, align 8, !tbaa !192
  ret i64 %5
}

; Function Attrs: mustprogress nounwind uwtable
define available_externally noundef ptr @_ZNKSt7__cxx1112basic_stringIcSt11char_traitsIcESaIcEE4dataEv(ptr noundef nonnull align 8 dereferenceable(32) %0) #6 align 2 {
  %2 = alloca ptr, align 8
  store ptr %0, ptr %2, align 8, !tbaa !59
  %3 = load ptr, ptr %2, align 8
  %4 = call noundef ptr @_ZNKSt7__cxx1112basic_stringIcSt11char_traitsIcESaIcEE7_M_dataEv(ptr noundef nonnull align 8 dereferenceable(32) %3)
  ret ptr %4
}

; Function Attrs: mustprogress nounwind uwtable
define linkonce_odr void @_ZN9grpc_core14UniqueTypeNameC2ESt17basic_string_viewIcSt11char_traitsIcEE(ptr noundef nonnull align 8 dereferenceable(16) %0, i64 %1, ptr %2) unnamed_addr #6 comdat align 2 {
  %4 = alloca %"class.std::basic_string_view", align 8
  %5 = alloca ptr, align 8
  %6 = getelementptr inbounds nuw { i64, ptr }, ptr %4, i32 0, i32 0
  store i64 %1, ptr %6, align 8
  %7 = getelementptr inbounds nuw { i64, ptr }, ptr %4, i32 0, i32 1
  store ptr %2, ptr %7, align 8
  store ptr %0, ptr %5, align 8, !tbaa !193
  %8 = load ptr, ptr %5, align 8
  %9 = getelementptr inbounds nuw %"class.grpc_core::UniqueTypeName", ptr %8, i32 0, i32 0
  call void @llvm.memcpy.p0.p0.i64(ptr align 8 %9, ptr align 8 %4, i64 16, i1 false), !tbaa.struct !30
  ret void
}

; Function Attrs: mustprogress nounwind uwtable
define available_externally { i64, ptr } @_ZNKSt7__cxx1112basic_stringIcSt11char_traitsIcESaIcEEcvSt17basic_string_viewIcS2_EEv(ptr noundef nonnull align 8 dereferenceable(32) %0) #6 align 2 {
  %2 = alloca %"class.std::basic_string_view", align 8
  %3 = alloca ptr, align 8
  store ptr %0, ptr %3, align 8, !tbaa !59
  %4 = load ptr, ptr %3, align 8
  %5 = call noundef ptr @_ZNKSt7__cxx1112basic_stringIcSt11char_traitsIcESaIcEE4dataEv(ptr noundef nonnull align 8 dereferenceable(32) %4) #3
  %6 = call noundef i64 @_ZNKSt7__cxx1112basic_stringIcSt11char_traitsIcESaIcEE4sizeEv(ptr noundef nonnull align 8 dereferenceable(32) %4) #3
  call void @_ZNSt17basic_string_viewIcSt11char_traitsIcEEC2EPKcm(ptr noundef nonnull align 8 dereferenceable(16) %2, ptr noundef %5, i64 noundef %6) #3
  %7 = load { i64, ptr }, ptr %2, align 8
  ret { i64, ptr } %7
}

; Function Attrs: noinline noreturn nounwind uwtable
define linkonce_odr hidden void @__clang_call_terminate(ptr noundef %0) #15 comdat {
  %2 = call ptr @__cxa_begin_catch(ptr %0) #3
  call void @_ZSt9terminatev() #29
  unreachable
}

; Function Attrs: mustprogress nounwind uwtable
define linkonce_odr noundef i64 @_ZNSt11char_traitsIcE6lengthEPKc(ptr noundef %0) #6 comdat align 2 {
  %2 = alloca ptr, align 8
  store ptr %0, ptr %2, align 8, !tbaa !10
  %3 = load ptr, ptr %2, align 8, !tbaa !10
  %4 = call i64 @strlen(ptr noundef %3) #3
  ret i64 %4
}

; Function Attrs: mustprogress uwtable
define linkonce_odr { i64, ptr } @_ZNK9grpc_core14UniqueTypeName7Factory6CreateEv(ptr noundef nonnull align 8 dereferenceable(8) %0) #4 comdat align 2 {
  %2 = alloca %"class.grpc_core::UniqueTypeName", align 8
  %3 = alloca ptr, align 8
  %4 = alloca %"class.std::basic_string_view", align 8
  store ptr %0, ptr %3, align 8, !tbaa !52
  %5 = load ptr, ptr %3, align 8
  %6 = getelementptr inbounds nuw %"class.grpc_core::UniqueTypeName::Factory", ptr %5, i32 0, i32 0
  %7 = load ptr, ptr %6, align 8, !tbaa !54
  %8 = call { i64, ptr } @_ZNKSt7__cxx1112basic_stringIcSt11char_traitsIcESaIcEEcvSt17basic_string_viewIcS2_EEv(ptr noundef nonnull align 8 dereferenceable(32) %7) #3
  %9 = getelementptr inbounds nuw { i64, ptr }, ptr %4, i32 0, i32 0
  %10 = extractvalue { i64, ptr } %8, 0
  store i64 %10, ptr %9, align 8
  %11 = getelementptr inbounds nuw { i64, ptr }, ptr %4, i32 0, i32 1
  %12 = extractvalue { i64, ptr } %8, 1
  store ptr %12, ptr %11, align 8
  %13 = getelementptr inbounds nuw { i64, ptr }, ptr %4, i32 0, i32 0
  %14 = load i64, ptr %13, align 8
  %15 = getelementptr inbounds nuw { i64, ptr }, ptr %4, i32 0, i32 1
  %16 = load ptr, ptr %15, align 8
  call void @_ZN9grpc_core14UniqueTypeNameC2ESt17basic_string_viewIcSt11char_traitsIcEE(ptr noundef nonnull align 8 dereferenceable(16) %2, i64 %14, ptr %16)
  %17 = getelementptr inbounds nuw %"class.grpc_core::UniqueTypeName", ptr %2, i32 0, i32 0
  %18 = load { i64, ptr }, ptr %17, align 8
  ret { i64, ptr } %18
}

; Function Attrs: mustprogress nounwind uwtable
define linkonce_odr void @_ZNSt17basic_string_viewIcSt11char_traitsIcEEC2EPKc(ptr noundef nonnull align 8 dereferenceable(16) %0, ptr noundef nonnull %1) unnamed_addr #6 comdat align 2 personality ptr @__gxx_personality_v0 {
  %3 = alloca ptr, align 8
  %4 = alloca ptr, align 8
  store ptr %0, ptr %3, align 8, !tbaa !20
  store ptr %1, ptr %4, align 8, !tbaa !10
  %5 = load ptr, ptr %3, align 8
  %6 = getelementptr inbounds nuw %"class.std::basic_string_view", ptr %5, i32 0, i32 0
  %7 = load ptr, ptr %4, align 8, !tbaa !10
  %8 = invoke noundef i64 @_ZNSt11char_traitsIcE6lengthEPKc(ptr noundef %7)
          to label %9 unwind label %12

9:                                                ; preds = %2
  store i64 %8, ptr %6, align 8, !tbaa !22
  %10 = getelementptr inbounds nuw %"class.std::basic_string_view", ptr %5, i32 0, i32 1
  %11 = load ptr, ptr %4, align 8, !tbaa !10
  store ptr %11, ptr %10, align 8, !tbaa !25
  ret void

12:                                               ; preds = %2
  %13 = landingpad { ptr, i32 }
          catch ptr null
  %14 = extractvalue { ptr, i32 } %13, 0
  call void @__clang_call_terminate(ptr %14) #29
  unreachable
}

; Function Attrs: mustprogress uwtable
define { i64, ptr } @_ZN39grpc_google_default_channel_credentials4TypeEv() #4 align 2 personality ptr @__gxx_personality_v0 {
  %1 = alloca %"class.grpc_core::UniqueTypeName", align 8
  %2 = alloca %"class.std::basic_string_view", align 8
  %3 = alloca ptr, align 8
  %4 = alloca i32, align 4
  %5 = load atomic i8, ptr @_ZGVZN39grpc_google_default_channel_credentials4TypeEvE8kFactory acquire, align 8
  %6 = icmp eq i8 %5, 0
  br i1 %6, label %7, label %16, !prof !51

7:                                                ; preds = %0
  %8 = call i32 @__cxa_guard_acquire(ptr @_ZGVZN39grpc_google_default_channel_credentials4TypeEvE8kFactory) #3
  %9 = icmp ne i32 %8, 0
  br i1 %9, label %10, label %16

10:                                               ; preds = %7
  call void @_ZNSt17basic_string_viewIcSt11char_traitsIcEEC2EPKc(ptr noundef nonnull align 8 dereferenceable(16) %2, ptr noundef @.str.6) #3
  %11 = getelementptr inbounds nuw { i64, ptr }, ptr %2, i32 0, i32 0
  %12 = load i64, ptr %11, align 8
  %13 = getelementptr inbounds nuw { i64, ptr }, ptr %2, i32 0, i32 1
  %14 = load ptr, ptr %13, align 8
  invoke void @_ZN9grpc_core14UniqueTypeName7FactoryC2ESt17basic_string_viewIcSt11char_traitsIcEE(ptr noundef nonnull align 8 dereferenceable(8) @_ZZN39grpc_google_default_channel_credentials4TypeEvE8kFactory, i64 %12, ptr %14)
          to label %15 unwind label %25

15:                                               ; preds = %10
  call void @__cxa_guard_release(ptr @_ZGVZN39grpc_google_default_channel_credentials4TypeEvE8kFactory) #3
  br label %16

16:                                               ; preds = %15, %7, %0
  %17 = call { i64, ptr } @_ZNK9grpc_core14UniqueTypeName7Factory6CreateEv(ptr noundef nonnull align 8 dereferenceable(8) @_ZZN39grpc_google_default_channel_credentials4TypeEvE8kFactory)
  %18 = getelementptr inbounds nuw %"class.grpc_core::UniqueTypeName", ptr %1, i32 0, i32 0
  %19 = getelementptr inbounds nuw { i64, ptr }, ptr %18, i32 0, i32 0
  %20 = extractvalue { i64, ptr } %17, 0
  store i64 %20, ptr %19, align 8
  %21 = getelementptr inbounds nuw { i64, ptr }, ptr %18, i32 0, i32 1
  %22 = extractvalue { i64, ptr } %17, 1
  store ptr %22, ptr %21, align 8
  %23 = getelementptr inbounds nuw %"class.grpc_core::UniqueTypeName", ptr %1, i32 0, i32 0
  %24 = load { i64, ptr }, ptr %23, align 8
  ret { i64, ptr } %24

25:                                               ; preds = %10
  %26 = landingpad { ptr, i32 }
          cleanup
  %27 = extractvalue { ptr, i32 } %26, 0
  store ptr %27, ptr %3, align 8
  %28 = extractvalue { ptr, i32 } %26, 1
  store i32 %28, ptr %4, align 4
  call void @__cxa_guard_abort(ptr @_ZGVZN39grpc_google_default_channel_credentials4TypeEvE8kFactory) #3
  br label %29

29:                                               ; preds = %25
  %30 = load ptr, ptr %3, align 8
  %31 = load i32, ptr %4, align 4
  %32 = insertvalue { ptr, i32 } poison, ptr %30, 0
  %33 = insertvalue { ptr, i32 } %32, i32 %31, 1
  resume { ptr, i32 } %33
}